; Function Attrs: nounwind uwtable
define dso_local i32 @Curl_getconnectinfo(ptr noundef %0, ptr noundef writeonly %1) local_unnamed_addr #0 {
  %3 = getelementptr inbounds nuw i8, ptr %0, i64 3024
  %4 = load i64, ptr %3, align 8, !tbaa !105
  %.not = icmp eq i64 %4, -1
  br i1 %.not, label %13, label %5

5:                                                ; preds = %2
  %6 = tail call ptr @Curl_cpool_get_conn(ptr noundef nonnull %0, i64 noundef %4) #10
  %.not12 = icmp eq ptr %6, null
  br i1 %.not12, label %7, label %8

7:                                                ; preds = %5
  store i64 -1, ptr %3, align 8, !tbaa !105
  br label %13

8:                                                ; preds = %5
  %.not13 = icmp eq ptr %1, null
  br i1 %.not13, label %10, label %9

9:                                                ; preds = %8
  store ptr %6, ptr %1, align 8, !tbaa !106
  br label %10

10:                                               ; preds = %9, %8
  %11 = getelementptr inbounds nuw i8, ptr %6, i64 568
  %12 = load i32, ptr %11, align 8, !tbaa !78
  br label %13

13:                                               ; preds = %2, %7, %10
  %.1 = phi i32 [ %12, %10 ], [ -1, %7 ], [ -1, %2 ]
  ret i32 %.1
}